; Function Attrs: mustprogress nofree norecurse nosync nounwind willreturn memory(argmem: readwrite) uwtable
define noundef i32 @_ZN5faiss25SplitMix64RandomGenerator8rand_intEi(ptr noundef nonnull align 8 captures(none) dereferenceable(8) %0, i32 noundef %1) local_unnamed_addr #4 align 2 {
  %3 = load i64, ptr %0, align 8, !tbaa !14
  %4 = add i64 %3, -7046029254386353131
  store i64 %4, ptr %0, align 8, !tbaa !14
  %5 = lshr i64 %4, 30
  %6 = xor i64 %5, %4
  %7 = mul i64 %6, -4658895280553007687
  %8 = lshr i64 %7, 27
  %9 = xor i64 %8, %7
  %10 = mul i64 %9, -7723592293110705685
  %11 = lshr i64 %10, 31
  %12 = xor i64 %11, %10
  %13 = sext i32 %1 to i64
  %14 = urem i64 %12, %13
  %15 = trunc i64 %14 to i32
  ret i32 %15
}